; ModuleID = '14/1458.c'
source_filename = "14/1458.c"
target datalayout = "e-m:e-p270:32:32-p271:32:32-p272:64:64-i64:64-f80:128-n8:16:32:64-S128"
target triple = "x86_64-pc-linux-gnu"

%struct.student = type { i32, i32, i32, %struct.student* }

@.str = private unnamed_addr constant [3 x i8] c"%d\00", align 1
@.str.1 = private unnamed_addr constant [9 x i8] c"%d %d %d\00", align 1
@.str.2 = private unnamed_addr constant [7 x i8] c"%d %d\0A\00", align 1

; Function Attrs: noinline nounwind uwtable
define dso_local void @main() #0 {
  %1 = alloca i32, align 4
  %2 = alloca i32, align 4
  %3 = alloca i32, align 4
  %4 = alloca i32, align 4
  %5 = alloca %struct.student*, align 8
  %6 = alloca %struct.student*, align 8
  %7 = alloca %struct.student*, align 8
  %8 = alloca %struct.student*, align 8
  %9 = alloca %struct.student*, align 8
  %10 = alloca %struct.student*, align 8
  %11 = call i32 (i8*, ...) @__isoc99_scanf(i8* getelementptr inbounds ([3 x i8], [3 x i8]* @.str, i64 0, i64 0), i32* %2)
  %12 = call noalias i8* @malloc(i64 24) #3
  %13 = bitcast i8* %12 to %struct.student*
  store %struct.student* %13, %struct.student** %10, align 8
  store %struct.student* %13, %struct.student** %9, align 8
  store %struct.student* %13, %struct.student** %5, align 8
  store i32 0, i32* %1, align 4
  br label %14

14:                                               ; preds = %32, %0
  %15 = load i32, i32* %1, align 4
  %16 = load i32, i32* %2, align 4
  %17 = icmp slt i32 %15, %16
  br i1 %17, label %18, label %35

18:                                               ; preds = %14
  %19 = load %struct.student*, %struct.student** %9, align 8
  %20 = getelementptr inbounds %struct.student, %struct.student* %19, i32 0, i32 0
  %21 = load %struct.student*, %struct.student** %9, align 8
  %22 = getelementptr inbounds %struct.student, %struct.student* %21, i32 0, i32 1
  %23 = load %struct.student*, %struct.student** %9, align 8
  %24 = getelementptr inbounds %struct.student, %struct.student* %23, i32 0, i32 2
  %25 = call i32 (i8*, ...) @__isoc99_scanf(i8* getelementptr inbounds ([9 x i8], [9 x i8]* @.str.1, i64 0, i64 0), i32* %20, i32* %22, i32* %24)
  %26 = call noalias i8* @malloc(i64 24) #3
  %27 = bitcast i8* %26 to %struct.student*
  store %struct.student* %27, %struct.student** %9, align 8
  %28 = load %struct.student*, %struct.student** %9, align 8
  %29 = load %struct.student*, %struct.student** %10, align 8
  %30 = getelementptr inbounds %struct.student, %struct.student* %29, i32 0, i32 3
  store %struct.student* %28, %struct.student** %30, align 8
  %31 = load %struct.student*, %struct.student** %9, align 8
  store %struct.student* %31, %struct.student** %10, align 8
  br label %32

32:                                               ; preds = %18
  %33 = load i32, i32* %1, align 4
  %34 = add nsw i32 %33, 1
  store i32 %34, i32* %1, align 4
  br label %14

35:                                               ; preds = %14
  %36 = load %struct.student*, %struct.student** %10, align 8
  %37 = getelementptr inbounds %struct.student, %struct.student* %36, i32 0, i32 3
  store %struct.student* null, %struct.student** %37, align 8
  store i32 0, i32* %3, align 4
  br label %38

38:                                               ; preds = %98, %35
  %39 = load i32, i32* %3, align 4
  %40 = icmp slt i32 %39, 3
  br i1 %40, label %41, label %101

41:                                               ; preds = %38
  %42 = load %struct.student*, %struct.student** %5, align 8
  store %struct.student* %42, %struct.student** %9, align 8
  store %struct.student* %42, %struct.student** %6, align 8
  %43 = load %struct.student*, %struct.student** %9, align 8
  %44 = getelementptr inbounds %struct.student, %struct.student* %43, i32 0, i32 1
  %45 = load i32, i32* %44, align 4
  %46 = load %struct.student*, %struct.student** %9, align 8
  %47 = getelementptr inbounds %struct.student, %struct.student* %46, i32 0, i32 2
  %48 = load i32, i32* %47, align 8
  %49 = add nsw i32 %45, %48
  store i32 %49, i32* %4, align 4
  %50 = load %struct.student*, %struct.student** %9, align 8
  %51 = getelementptr inbounds %struct.student, %struct.student* %50, i32 0, i32 3
  %52 = load %struct.student*, %struct.student** %51, align 8
  store %struct.student* %52, %struct.student** %9, align 8
  store i32 0, i32* %1, align 4
  br label %53

53:                                               ; preds = %84, %41
  %54 = load i32, i32* %1, align 4
  %55 = load i32, i32* %2, align 4
  %56 = load i32, i32* %3, align 4
  %57 = sub nsw i32 %55, %56
  %58 = icmp slt i32 %54, %57
  br i1 %58, label %59, label %87

59:                                               ; preds = %53
  %60 = load %struct.student*, %struct.student** %9, align 8
  %61 = getelementptr inbounds %struct.student, %struct.student* %60, i32 0, i32 1
  %62 = load i32, i32* %61, align 4
  %63 = load %struct.student*, %struct.student** %9, align 8
  %64 = getelementptr inbounds %struct.student, %struct.student* %63, i32 0, i32 2
  %65 = load i32, i32* %64, align 8
  %66 = add nsw i32 %62, %65
  %67 = load i32, i32* %4, align 4
  %68 = icmp sgt i32 %66, %67
  br i1 %68, label %69, label %79

69:                                               ; preds = %59
  %70 = load %struct.student*, %struct.student** %9, align 8
  %71 = getelementptr inbounds %struct.student, %struct.student* %70, i32 0, i32 1
  %72 = load i32, i32* %71, align 4
  %73 = load %struct.student*, %struct.student** %9, align 8
  %74 = getelementptr inbounds %struct.student, %struct.student* %73, i32 0, i32 2
  %75 = load i32, i32* %74, align 8
  %76 = add nsw i32 %72, %75
  store i32 %76, i32* %4, align 4
  %77 = load %struct.student*, %struct.student** %9, align 8
  store %struct.student* %77, %struct.student** %7, align 8
  %78 = load %struct.student*, %struct.student** %6, align 8
  store %struct.student* %78, %struct.student** %8, align 8
  br label %79

79:                                               ; preds = %69, %59
  %80 = load %struct.student*, %struct.student** %9, align 8
  store %struct.student* %80, %struct.student** %6, align 8
  %81 = load %struct.student*, %struct.student** %9, align 8
  %82 = getelementptr inbounds %struct.student, %struct.student* %81, i32 0, i32 3
  %83 = load %struct.student*, %struct.student** %82, align 8
  store %struct.student* %83, %struct.student** %9, align 8
  br label %84

84:                                               ; preds = %79
  %85 = load i32, i32* %1, align 4
  %86 = add nsw i32 %85, 1
  store i32 %86, i32* %1, align 4
  br label %53

87:                                               ; preds = %53
  %88 = load %struct.student*, %struct.student** %7, align 8
  %89 = getelementptr inbounds %struct.student, %struct.student* %88, i32 0, i32 0
  %90 = load i32, i32* %89, align 8
  %91 = load i32, i32* %4, align 4
  %92 = call i32 (i8*, ...) @printf(i8* getelementptr inbounds ([7 x i8], [7 x i8]* @.str.2, i64 0, i64 0), i32 %90, i32 %91)
  %93 = load %struct.student*, %struct.student** %7, align 8
  %94 = getelementptr inbounds %struct.student, %struct.student* %93, i32 0, i32 3
  %95 = load %struct.student*, %struct.student** %94, align 8
  %96 = load %struct.student*, %struct.student** %8, align 8
  %97 = getelementptr inbounds %struct.student, %struct.student* %96, i32 0, i32 3
  store %struct.student* %95, %struct.student** %97, align 8
  br label %98

98:                                               ; preds = %87
  %99 = load i32, i32* %3, align 4
  %100 = add nsw i32 %99, 1
  store i32 %100, i32* %3, align 4
  br label %38

101:                                              ; preds = %38
  ret void
}

declare dso_local i32 @__isoc99_scanf(i8*, ...) #1

; Function Attrs: nounwind
declare dso_local noalias i8* @malloc(i64) #2

declare dso_local i32 @printf(i8*, ...) #1


!llvm.module.flags = !{!0}
!llvm.ident = !{!1}

!0 = !{i32 1, !"wchar_size", i32 4}
!1 = !{!"clang version 10.0.0-4ubuntu1 "}
